; Function Attrs: mustprogress uwtable
define noundef i64 @_ZN7openvdb5v11_02io15zipToStreamSizeEPKcm(ptr noundef %data, i64 noundef %numBytes) local_unnamed_addr #3 personality ptr @__gxx_personality_v0 {
entry:
  %numZippedBytes = alloca i64, align 8
  %call = tail call i64 @compressBound(i64 noundef %numBytes)
  store i64 %call, ptr %numZippedBytes, align 8
  %call1 = tail call noalias noundef nonnull ptr @_Znam(i64 noundef %call) #12
  %call3 = invoke i32 @compress2(ptr noundef nonnull %call1, ptr noundef nonnull %numZippedBytes, ptr noundef %data, i64 noundef %numBytes, i32 noundef -1)
          to label %_ZNSt10unique_ptrIA_hSt14default_deleteIS0_EED2Ev.exit unwind label %_ZNSt10unique_ptrIA_hSt14default_deleteIS0_EED2Ev.exit6

_ZNSt10unique_ptrIA_hSt14default_deleteIS0_EED2Ev.exit: ; preds = %entry
  %cmp = icmp eq i32 %call3, 0
  %0 = load i64, ptr %numZippedBytes, align 8
  %1 = call i64 @llvm.umin.i64(i64 %0, i64 %numBytes)
  %retval.0 = select i1 %cmp, i64 %1, i64 %numBytes
  call void @_ZdaPv(ptr noundef nonnull %call1) #13
  ret i64 %retval.0

_ZNSt10unique_ptrIA_hSt14default_deleteIS0_EED2Ev.exit6: ; preds = %entry
  %2 = landingpad { ptr, i32 }
          cleanup
  call void @_ZdaPv(ptr noundef nonnull %call1) #13
  resume { ptr, i32 } %2
}